target datalayout = "e-m:e-p270:32:32-p271:32:32-p272:64:64-i64:64-i128:128-f80:128-n8:16:32:64-S128"
target triple = "x86_64-pc-linux-gnu"

@hf_mysql_exec_field_blob = internal global i32 0, align 4
@hf_mysql_exec_field_string_length = internal global i32 0, align 4
@hf_mysql_exec_field_string = internal global i32 0, align 4

; Function Attrs: null_pointer_is_valid sspstrong uwtable
define internal i32 @tvb_get_fle(ptr noundef %0, ptr noundef %1, i32 noundef %2, ptr noundef %3, ptr noundef %4) #0 {
  %6 = alloca i32, align 4
  %7 = alloca ptr, align 8
  %8 = alloca ptr, align 8
  %9 = alloca i32, align 4
  %10 = alloca ptr, align 8
  %11 = alloca ptr, align 8
  %12 = alloca i8, align 1
  %13 = alloca i32, align 4
  %14 = alloca i64, align 8
  %15 = alloca i32, align 4
  store ptr %0, ptr %7, align 8
  store ptr %1, ptr %8, align 8
  store i32 %2, ptr %9, align 4
  store ptr %3, ptr %10, align 8
  store ptr %4, ptr %11, align 8
  call void @llvm.lifetime.start.p0(i64 1, ptr %12) #11
  call void @llvm.lifetime.start.p0(i64 4, ptr %13) #11
  call void @llvm.lifetime.start.p0(i64 8, ptr %14) #11
  %16 = load ptr, ptr %7, align 8
  %17 = load i32, ptr %9, align 4
  %18 = call zeroext i8 @tvb_get_uint8(ptr noundef %16, i32 noundef %17)
  store i8 %18, ptr %12, align 1
  %19 = load ptr, ptr %11, align 8
  %20 = icmp ne ptr %19, null
  br i1 %20, label %21, label %23

21:                                               ; preds = %5
  %22 = load ptr, ptr %11, align 8
  store i8 0, ptr %22, align 1
  br label %23

23:                                               ; preds = %21, %5
  %24 = load i8, ptr %12, align 1
  %25 = zext i8 %24 to i32
  switch i32 %25, label %57 [
    i32 251, label %26
    i32 252, label %37
    i32 253, label %44
    i32 254, label %51
  ]

26:                                               ; preds = %23
  %27 = load ptr, ptr %10, align 8
  %28 = icmp ne ptr %27, null
  br i1 %28, label %29, label %31

29:                                               ; preds = %26
  %30 = load ptr, ptr %10, align 8
  store i64 0, ptr %30, align 8
  br label %31

31:                                               ; preds = %29, %26
  %32 = load ptr, ptr %11, align 8
  %33 = icmp ne ptr %32, null
  br i1 %33, label %34, label %36

34:                                               ; preds = %31
  %35 = load ptr, ptr %11, align 8
  store i8 1, ptr %35, align 1
  br label %36

36:                                               ; preds = %34, %31
  store i32 1, ptr %6, align 4
  store i32 1, ptr %15, align 4
  br label %70

37:                                               ; preds = %23
  store i32 3, ptr %13, align 4
  %38 = load i32, ptr %9, align 4
  %39 = add i32 %38, 1
  store i32 %39, ptr %9, align 4
  %40 = load ptr, ptr %7, align 8
  %41 = load i32, ptr %9, align 4
  %42 = call zeroext i16 @tvb_get_uint16(ptr noundef %40, i32 noundef %41, i32 noundef -2147483648)
  %43 = zext i16 %42 to i64
  store i64 %43, ptr %14, align 8
  br label %62

44:                                               ; preds = %23
  store i32 4, ptr %13, align 4
  %45 = load i32, ptr %9, align 4
  %46 = add i32 %45, 1
  store i32 %46, ptr %9, align 4
  %47 = load ptr, ptr %7, align 8
  %48 = load i32, ptr %9, align 4
  %49 = call i32 @tvb_get_uint24(ptr noundef %47, i32 noundef %48, i32 noundef -2147483648)
  %50 = zext i32 %49 to i64
  store i64 %50, ptr %14, align 8
  br label %62

51:                                               ; preds = %23
  store i32 9, ptr %13, align 4
  %52 = load i32, ptr %9, align 4
  %53 = add i32 %52, 1
  store i32 %53, ptr %9, align 4
  %54 = load ptr, ptr %7, align 8
  %55 = load i32, ptr %9, align 4
  %56 = call i64 @tvb_get_uint64(ptr noundef %54, i32 noundef %55, i32 noundef -2147483648)
  store i64 %56, ptr %14, align 8
  br label %62

57:                                               ; preds = %23
  store i32 1, ptr %13, align 4
  %58 = load ptr, ptr %7, align 8
  %59 = load i32, ptr %9, align 4
  %60 = call zeroext i8 @tvb_get_uint8(ptr noundef %58, i32 noundef %59)
  %61 = zext i8 %60 to i64
  store i64 %61, ptr %14, align 8
  br label %62

62:                                               ; preds = %57, %51, %44, %37
  %63 = load ptr, ptr %10, align 8
  %64 = icmp ne ptr %63, null
  br i1 %64, label %65, label %68

65:                                               ; preds = %62
  %66 = load i64, ptr %14, align 8
  %67 = load ptr, ptr %10, align 8
  store i64 %66, ptr %67, align 8
  br label %68

68:                                               ; preds = %65, %62
  %69 = load i32, ptr %13, align 4
  store i32 %69, ptr %6, align 4
  store i32 1, ptr %15, align 4
  br label %70

70:                                               ; preds = %68, %36
  call void @llvm.lifetime.end.p0(i64 8, ptr %14) #11
  call void @llvm.lifetime.end.p0(i64 4, ptr %13) #11
  call void @llvm.lifetime.end.p0(i64 1, ptr %12) #11
  %71 = load i32, ptr %6, align 4
  ret i32 %71
}

; Function Attrs: null_pointer_is_valid sspstrong uwtable
define internal void @mysql_dissect_exec_string(ptr noundef %0, ptr noundef %1, ptr noundef %2, ptr noundef %3, i32 noundef %4) #0 {
  %6 = alloca ptr, align 8
  %7 = alloca ptr, align 8
  %8 = alloca ptr, align 8
  %9 = alloca ptr, align 8
  %10 = alloca i32, align 4
  %11 = alloca i32, align 4
  %12 = alloca i64, align 8
  store ptr %0, ptr %6, align 8
  store ptr %1, ptr %7, align 8
  store ptr %2, ptr %8, align 8
  store ptr %3, ptr %9, align 8
  store i32 %4, ptr %10, align 4
  call void @llvm.lifetime.start.p0(i64 4, ptr %11) #11
  call void @llvm.lifetime.start.p0(i64 8, ptr %12) #11
  %13 = load ptr, ptr %6, align 8
  %14 = load ptr, ptr %9, align 8
  %15 = load ptr, ptr %8, align 8
  %16 = load i32, ptr %15, align 4
  %17 = call i32 @tvb_get_fle(ptr noundef %13, ptr noundef %14, i32 noundef %16, ptr noundef %12, ptr noundef null)
  store i32 %17, ptr %11, align 4
  %18 = load ptr, ptr %9, align 8
  %19 = load i32, ptr @hf_mysql_exec_field_string_length, align 4
  %20 = load ptr, ptr %6, align 8
  %21 = load ptr, ptr %8, align 8
  %22 = load i32, ptr %21, align 4
  %23 = load i32, ptr %11, align 4
  %24 = call ptr @proto_tree_add_item(ptr noundef %18, i32 noundef %19, ptr noundef %20, i32 noundef %22, i32 noundef %23, i32 noundef 0)
  %25 = load i32, ptr %11, align 4
  %26 = load ptr, ptr %8, align 8
  %27 = load i32, ptr %26, align 4
  %28 = add i32 %27, %25
  store i32 %28, ptr %26, align 4
  %29 = load i32, ptr %10, align 4
  %30 = icmp eq i32 %29, 0
  br i1 %30, label %31, label %40

31:                                               ; preds = %5
  %32 = load ptr, ptr %9, align 8
  %33 = load i32, ptr @hf_mysql_exec_field_blob, align 4
  %34 = load ptr, ptr %6, align 8
  %35 = load ptr, ptr %8, align 8
  %36 = load i32, ptr %35, align 4
  %37 = load i64, ptr %12, align 8
  %38 = trunc i64 %37 to i32
  %39 = call ptr @proto_tree_add_item(ptr noundef %32, i32 noundef %33, ptr noundef %34, i32 noundef %36, i32 noundef %38, i32 noundef 0)
  br label %50

40:                                               ; preds = %5
  %41 = load ptr, ptr %9, align 8
  %42 = load i32, ptr @hf_mysql_exec_field_string, align 4
  %43 = load ptr, ptr %6, align 8
  %44 = load ptr, ptr %8, align 8
  %45 = load i32, ptr %44, align 4
  %46 = load i64, ptr %12, align 8
  %47 = trunc i64 %46 to i32
  %48 = load i32, ptr %10, align 4
  %49 = call ptr @proto_tree_add_item(ptr noundef %41, i32 noundef %42, ptr noundef %43, i32 noundef %45, i32 noundef %47, i32 noundef %48)
  br label %50

50:                                               ; preds = %40, %31
  %51 = load i64, ptr %12, align 8
  %52 = trunc i64 %51 to i32
  %53 = load ptr, ptr %8, align 8
  %54 = load i32, ptr %53, align 4
  %55 = add i32 %54, %52
  store i32 %55, ptr %53, align 4
  call void @llvm.lifetime.end.p0(i64 8, ptr %12) #11
  call void @llvm.lifetime.end.p0(i64 4, ptr %11) #11
  ret void
}