; Function Attrs: null_pointer_is_valid sspstrong uwtable
define internal void @mysql_dissect_exec_string(ptr noundef %0, ptr readnone captures(none) %1, ptr noundef captures(none) %2, ptr noundef %3, i32 noundef %4) #0 {
  %6 = load i32, ptr %2, align 4
  %7 = tail call zeroext i8 @tvb_get_uint8(ptr noundef %0, i32 noundef %6)
  switch i8 %7, label %19 [
    i8 -5, label %tvb_get_fle.exit
    i8 -4, label %8
    i8 -3, label %12
    i8 -2, label %16
  ]

8:                                                ; preds = %5
  %9 = add i32 %6, 1
  %10 = tail call zeroext i16 @tvb_get_uint16(ptr noundef %0, i32 noundef %9, i32 noundef -2147483648)
  %11 = zext i16 %10 to i64
  br label %tvb_get_fle.exit

12:                                               ; preds = %5
  %13 = add i32 %6, 1
  %14 = tail call i32 @tvb_get_uint24(ptr noundef %0, i32 noundef %13, i32 noundef -2147483648)
  %15 = zext i32 %14 to i64
  br label %tvb_get_fle.exit

16:                                               ; preds = %5
  %17 = add i32 %6, 1
  %18 = tail call i64 @tvb_get_uint64(ptr noundef %0, i32 noundef %17, i32 noundef -2147483648)
  br label %tvb_get_fle.exit

19:                                               ; preds = %5
  %20 = tail call zeroext i8 @tvb_get_uint8(ptr noundef %0, i32 noundef %6)
  %21 = zext i8 %20 to i64
  br label %tvb_get_fle.exit

tvb_get_fle.exit:                                 ; preds = %8, %12, %16, %19, %5
  %.0 = phi i64 [ 0, %5 ], [ %21, %19 ], [ %18, %16 ], [ %15, %12 ], [ %11, %8 ]
  %.025.i = phi i32 [ 1, %5 ], [ 1, %19 ], [ 9, %16 ], [ 4, %12 ], [ 3, %8 ]
  %22 = load i32, ptr @hf_mysql_exec_field_string_length, align 4
  %23 = load i32, ptr %2, align 4
  %24 = tail call ptr @proto_tree_add_item(ptr noundef %3, i32 noundef %22, ptr noundef %0, i32 noundef %23, i32 noundef %.025.i, i32 noundef 0)
  %25 = load i32, ptr %2, align 4
  %26 = add i32 %25, %.025.i
  store i32 %26, ptr %2, align 4
  %27 = icmp eq i32 %4, 0
  %28 = trunc i64 %.0 to i32
  %hf_mysql_exec_field_blob.val = load i32, ptr @hf_mysql_exec_field_blob, align 4
  %hf_mysql_exec_field_string.val = load i32, ptr @hf_mysql_exec_field_string, align 4
  %29 = select i1 %27, i32 %hf_mysql_exec_field_blob.val, i32 %hf_mysql_exec_field_string.val
  %30 = tail call ptr @proto_tree_add_item(ptr noundef %3, i32 noundef %29, ptr noundef %0, i32 noundef %26, i32 noundef %28, i32 noundef %4)
  %31 = load i32, ptr %2, align 4
  %32 = add i32 %31, %28
  store i32 %32, ptr %2, align 4
  ret void
}